target datalayout = "e-m:e-p270:32:32-p271:32:32-p272:64:64-i64:64-i128:128-f80:128-n8:16:32:64-S128"
target triple = "x86_64-pc-linux-gnu"

%"class.sat::cut" = type { i32, i32, [5 x i32], i64, i64 }

; Function Attrs: mustprogress nounwind uwtable
define linkonce_odr hidden noundef ptr @_ZNK3sat3cut3endEv(ptr noundef nonnull align 8 dereferenceable(48) %0) #6 comdat align 2 {
  %2 = alloca ptr, align 8
  store ptr %0, ptr %2, align 8, !tbaa !10
  %3 = load ptr, ptr %2, align 8
  %4 = getelementptr inbounds nuw %"class.sat::cut", ptr %3, i32 0, i32 2
  %5 = getelementptr inbounds [5 x i32], ptr %4, i64 0, i64 0
  %6 = getelementptr inbounds nuw %"class.sat::cut", ptr %3, i32 0, i32 1
  %7 = load i32, ptr %6, align 4, !tbaa !59
  %8 = zext i32 %7 to i64
  %9 = getelementptr inbounds nuw i32, ptr %5, i64 %8
  ret ptr %9
}

; Function Attrs: mustprogress nounwind uwtable
define linkonce_odr hidden noundef ptr @_ZNK3sat3cut5beginEv(ptr noundef nonnull align 8 dereferenceable(48) %0) #6 comdat align 2 {
  %2 = alloca ptr, align 8
  store ptr %0, ptr %2, align 8, !tbaa !10
  %3 = load ptr, ptr %2, align 8
  %4 = getelementptr inbounds nuw %"class.sat::cut", ptr %3, i32 0, i32 2
  %5 = getelementptr inbounds [5 x i32], ptr %4, i64 0, i64 0
  ret ptr %5
}

; Function Attrs: mustprogress nounwind uwtable
define hidden noundef i64 @_ZN3sat3cut11effect_maskEj(i32 noundef %0) #6 align 2 {
  %2 = alloca i32, align 4
  %3 = alloca i64, align 8
  %4 = alloca i32, align 4
  store i32 %0, ptr %2, align 4, !tbaa !12
  call void @llvm.lifetime.start.p0(i64 8, ptr %3) #3
  store i64 0, ptr %3, align 8, !tbaa !28
  %5 = load i32, ptr %2, align 4, !tbaa !12
  %6 = icmp eq i32 %5, 6
  br i1 %6, label %7, label %8

7:                                                ; preds = %1
  store i64 -1, ptr %3, align 8, !tbaa !28
  br label %30

8:                                                ; preds = %1
  %9 = load i32, ptr %2, align 4, !tbaa !12
  %10 = shl i32 1, %9
  %11 = zext i32 %10 to i64
  %12 = shl i64 1, %11
  %13 = sub i64 %12, 1
  store i64 %13, ptr %3, align 8, !tbaa !28
  call void @llvm.lifetime.start.p0(i64 4, ptr %4) #3
  %14 = load i32, ptr %2, align 4, !tbaa !12
  %15 = add i32 %14, 1
  %16 = shl i32 1, %15
  store i32 %16, ptr %4, align 4, !tbaa !12
  br label %17

17:                                               ; preds = %20, %8
  %18 = load i32, ptr %4, align 4, !tbaa !12
  %19 = icmp ult i32 %18, 64
  br i1 %19, label %20, label %29

20:                                               ; preds = %17
  %21 = load i64, ptr %3, align 8, !tbaa !28
  %22 = load i32, ptr %4, align 4, !tbaa !12
  %23 = zext i32 %22 to i64
  %24 = shl i64 %21, %23
  %25 = load i64, ptr %3, align 8, !tbaa !28
  %26 = or i64 %25, %24
  store i64 %26, ptr %3, align 8, !tbaa !28
  %27 = load i32, ptr %4, align 4, !tbaa !12
  %28 = mul i32 %27, 2
  store i32 %28, ptr %4, align 4, !tbaa !12
  br label %17, !llvm.loop !75

29:                                               ; preds = %17
  call void @llvm.lifetime.end.p0(i64 4, ptr %4) #3
  br label %30

30:                                               ; preds = %29, %7
  %31 = load i64, ptr %3, align 8, !tbaa !28
  call void @llvm.lifetime.end.p0(i64 8, ptr %3) #3
  ret i64 %31
}

; Function Attrs: mustprogress uwtable
define hidden void @_ZN3sat3cut11remove_elemEj(ptr noundef nonnull align 8 dereferenceable(48) %0, i32 noundef %1) #4 align 2 {
  %3 = alloca ptr, align 8
  %4 = alloca i32, align 4
  %5 = alloca i32, align 4
  %6 = alloca i64, align 8
  %7 = alloca i64, align 8
  %8 = alloca i32, align 4
  %9 = alloca i32, align 4
  %10 = alloca i32, align 4
  %11 = alloca ptr, align 8
  %12 = alloca ptr, align 8
  %13 = alloca ptr, align 8
  %14 = alloca i32, align 4
  store ptr %0, ptr %3, align 8, !tbaa !10
  store i32 %1, ptr %4, align 4, !tbaa !12
  %15 = load ptr, ptr %3, align 8
  call void @llvm.lifetime.start.p0(i64 4, ptr %5) #3
  %16 = load i32, ptr %4, align 4, !tbaa !12
  %17 = add i32 %16, 1
  store i32 %17, ptr %5, align 4, !tbaa !12
  br label %18

18:                                               ; preds = %35, %2
  %19 = load i32, ptr %5, align 4, !tbaa !12
  %20 = getelementptr inbounds nuw %"class.sat::cut", ptr %15, i32 0, i32 1
  %21 = load i32, ptr %20, align 4, !tbaa !59
  %22 = icmp ult i32 %19, %21
  br i1 %22, label %24, label %23

23:                                               ; preds = %18
  call void @llvm.lifetime.end.p0(i64 4, ptr %5) #3
  br label %38

24:                                               ; preds = %18
  %25 = getelementptr inbounds nuw %"class.sat::cut", ptr %15, i32 0, i32 2
  %26 = load i32, ptr %5, align 4, !tbaa !12
  %27 = zext i32 %26 to i64
  %28 = getelementptr inbounds nuw [5 x i32], ptr %25, i64 0, i64 %27
  %29 = load i32, ptr %28, align 4, !tbaa !12
  %30 = getelementptr inbounds nuw %"class.sat::cut", ptr %15, i32 0, i32 2
  %31 = load i32, ptr %5, align 4, !tbaa !12
  %32 = sub i32 %31, 1
  %33 = zext i32 %32 to i64
  %34 = getelementptr inbounds nuw [5 x i32], ptr %30, i64 0, i64 %33
  store i32 %29, ptr %34, align 4, !tbaa !12
  br label %35

35:                                               ; preds = %24
  %36 = load i32, ptr %5, align 4, !tbaa !12
  %37 = add i32 %36, 1
  store i32 %37, ptr %5, align 4, !tbaa !12
  br label %18, !llvm.loop !76

38:                                               ; preds = %23
  %39 = getelementptr inbounds nuw %"class.sat::cut", ptr %15, i32 0, i32 1
  %40 = load i32, ptr %39, align 4, !tbaa !59
  %41 = add i32 %40, -1
  store i32 %41, ptr %39, align 4, !tbaa !59
  call void @llvm.lifetime.start.p0(i64 8, ptr %6) #3
  %42 = load i32, ptr %4, align 4, !tbaa !12
  %43 = call noundef i64 @_ZN3sat3cut11effect_maskEj(i32 noundef %42)
  store i64 %43, ptr %6, align 8, !tbaa !28
  call void @llvm.lifetime.start.p0(i64 8, ptr %7) #3
  store i64 0, ptr %7, align 8, !tbaa !28
  call void @llvm.lifetime.start.p0(i64 4, ptr %8) #3
  store i32 0, ptr %8, align 4, !tbaa !12
  call void @llvm.lifetime.start.p0(i64 4, ptr %9) #3
  store i32 0, ptr %9, align 4, !tbaa !12
  br label %44

44:                                               ; preds = %70, %38
  %45 = load i32, ptr %8, align 4, !tbaa !12
  %46 = icmp ult i32 %45, 64
  br i1 %46, label %48, label %47

47:                                               ; preds = %44
  call void @llvm.lifetime.end.p0(i64 4, ptr %9) #3
  call void @llvm.lifetime.end.p0(i64 4, ptr %8) #3
  br label %73

48:                                               ; preds = %44
  %49 = load i64, ptr %6, align 8, !tbaa !28
  %50 = load i32, ptr %8, align 4, !tbaa !12
  %51 = zext i32 %50 to i64
  %52 = shl i64 1, %51
  %53 = and i64 %49, %52
  %54 = icmp ne i64 0, %53
  br i1 %54, label %55, label %69

55:                                               ; preds = %48
  %56 = getelementptr inbounds nuw %"class.sat::cut", ptr %15, i32 0, i32 3
  %57 = load i64, ptr %56, align 8, !tbaa !65
  %58 = load i32, ptr %8, align 4, !tbaa !12
  %59 = zext i32 %58 to i64
  %60 = lshr i64 %57, %59
  %61 = and i64 %60, 1
  %62 = load i32, ptr %9, align 4, !tbaa !12
  %63 = zext i32 %62 to i64
  %64 = shl i64 %61, %63
  %65 = load i64, ptr %7, align 8, !tbaa !28
  %66 = or i64 %65, %64
  store i64 %66, ptr %7, align 8, !tbaa !28
  %67 = load i32, ptr %9, align 4, !tbaa !12
  %68 = add i32 %67, 1
  store i32 %68, ptr %9, align 4, !tbaa !12
  br label %69

69:                                               ; preds = %55, %48
  br label %70

70:                                               ; preds = %69
  %71 = load i32, ptr %8, align 4, !tbaa !12
  %72 = add i32 %71, 1
  store i32 %72, ptr %8, align 4, !tbaa !12
  br label %44, !llvm.loop !77

73:                                               ; preds = %47
  %74 = load i64, ptr %7, align 8, !tbaa !28
  %75 = getelementptr inbounds nuw %"class.sat::cut", ptr %15, i32 0, i32 3
  store i64 %74, ptr %75, align 8, !tbaa !65
  %76 = getelementptr inbounds nuw %"class.sat::cut", ptr %15, i32 0, i32 4
  store i64 0, ptr %76, align 8, !tbaa !66
  call void @llvm.lifetime.start.p0(i64 4, ptr %10) #3
  store i32 0, ptr %10, align 4, !tbaa !12
  call void @llvm.lifetime.start.p0(i64 8, ptr %11) #3
  store ptr %15, ptr %11, align 8, !tbaa !10
  call void @llvm.lifetime.start.p0(i64 8, ptr %12) #3
  %77 = load ptr, ptr %11, align 8, !tbaa !10
  %78 = call noundef ptr @_ZNK3sat3cut5beginEv(ptr noundef nonnull align 8 dereferenceable(48) %77)
  store ptr %78, ptr %12, align 8, !tbaa !23
  call void @llvm.lifetime.start.p0(i64 8, ptr %13) #3
  %79 = load ptr, ptr %11, align 8, !tbaa !10
  %80 = call noundef ptr @_ZNK3sat3cut3endEv(ptr noundef nonnull align 8 dereferenceable(48) %79)
  store ptr %80, ptr %13, align 8, !tbaa !23
  br label %81

81:                                               ; preds = %94, %73
  %82 = load ptr, ptr %12, align 8, !tbaa !23
  %83 = load ptr, ptr %13, align 8, !tbaa !23
  %84 = icmp ne ptr %82, %83
  br i1 %84, label %86, label %85

85:                                               ; preds = %81
  call void @llvm.lifetime.end.p0(i64 8, ptr %13) #3
  call void @llvm.lifetime.end.p0(i64 8, ptr %12) #3
  call void @llvm.lifetime.end.p0(i64 8, ptr %11) #3
  br label %97

86:                                               ; preds = %81
  call void @llvm.lifetime.start.p0(i64 4, ptr %14) #3
  %87 = load ptr, ptr %12, align 8, !tbaa !23
  %88 = load i32, ptr %87, align 4, !tbaa !12
  store i32 %88, ptr %14, align 4, !tbaa !12
  %89 = load i32, ptr %14, align 4, !tbaa !12
  %90 = and i32 %89, 31
  %91 = shl i32 1, %90
  %92 = load i32, ptr %10, align 4, !tbaa !12
  %93 = or i32 %92, %91
  store i32 %93, ptr %10, align 4, !tbaa !12
  call void @llvm.lifetime.end.p0(i64 4, ptr %14) #3
  br label %94

94:                                               ; preds = %86
  %95 = load ptr, ptr %12, align 8, !tbaa !23
  %96 = getelementptr inbounds nuw i32, ptr %95, i32 1
  store ptr %96, ptr %12, align 8, !tbaa !23
  br label %81

97:                                               ; preds = %85
  %98 = load i32, ptr %10, align 4, !tbaa !12
  %99 = getelementptr inbounds nuw %"class.sat::cut", ptr %15, i32 0, i32 0
  store i32 %98, ptr %99, align 8, !tbaa !20
  call void @llvm.lifetime.end.p0(i64 4, ptr %10) #3
  call void @llvm.lifetime.end.p0(i64 8, ptr %7) #3
  call void @llvm.lifetime.end.p0(i64 8, ptr %6) #3
  ret void
}