; Function Attrs: mustprogress nofree norecurse nosync nounwind memory(argmem: readwrite) uwtable
define hidden void @_ZN3sat3cut11remove_elemEj(ptr noundef nonnull align 8 captures(address) dereferenceable(48) %0, i32 noundef %1) local_unnamed_addr #8 align 2 {
  %3 = getelementptr inbounds nuw i8, ptr %0, i64 4
  %4 = load i32, ptr %3, align 4, !tbaa !15
  %.034 = add i32 %1, 1
  %5 = icmp ult i32 %.034, %4
  br i1 %5, label %.lr.ph, label %._crit_edge

.lr.ph:                                           ; preds = %2
  %6 = getelementptr inbounds nuw i8, ptr %0, i64 8
  %7 = zext i32 %.034 to i64
  br label %23

._crit_edge:                                      ; preds = %23, %2
  %8 = add i32 %4, -1
  store i32 %8, ptr %3, align 4, !tbaa !15
  %9 = icmp eq i32 %1, 6
  br i1 %9, label %_ZN3sat3cut11effect_maskEj.exit, label %10

10:                                               ; preds = %._crit_edge
  %11 = shl nuw i32 1, %1
  %12 = zext nneg i32 %11 to i64
  %notmask.i = shl nsw i64 -1, %12
  %13 = xor i64 %notmask.i, -1
  %14 = icmp ult i32 %.034, 6
  br i1 %14, label %.lr.ph.preheader.i, label %_ZN3sat3cut11effect_maskEj.exit

.lr.ph.preheader.i:                               ; preds = %10
  %15 = shl nuw nsw i32 1, %.034
  br label %.lr.ph.i

.lr.ph.i:                                         ; preds = %.lr.ph.i, %.lr.ph.preheader.i
  %.012.i = phi i32 [ %19, %.lr.ph.i ], [ %15, %.lr.ph.preheader.i ]
  %.111.i = phi i64 [ %18, %.lr.ph.i ], [ %13, %.lr.ph.preheader.i ]
  %16 = zext nneg i32 %.012.i to i64
  %17 = shl i64 %.111.i, %16
  %18 = or i64 %17, %.111.i
  %19 = shl nuw nsw i32 %.012.i, 1
  %20 = icmp samesign ult i32 %.012.i, 32
  br i1 %20, label %.lr.ph.i, label %_ZN3sat3cut11effect_maskEj.exit, !llvm.loop !56

_ZN3sat3cut11effect_maskEj.exit:                  ; preds = %.lr.ph.i, %._crit_edge, %10
  %.09.i = phi i64 [ -1, %._crit_edge ], [ %13, %10 ], [ %18, %.lr.ph.i ]
  %21 = getelementptr inbounds nuw i8, ptr %0, i64 32
  %22 = load i64, ptr %21, align 8
  br label %33

23:                                               ; preds = %.lr.ph, %23
  %indvars.iv = phi i64 [ %7, %.lr.ph ], [ %indvars.iv.next, %23 ]
  %.0.in35 = phi i32 [ %1, %.lr.ph ], [ %28, %23 ]
  %24 = getelementptr inbounds nuw [5 x i32], ptr %6, i64 0, i64 %indvars.iv
  %25 = load i32, ptr %24, align 4, !tbaa !16
  %26 = zext i32 %.0.in35 to i64
  %27 = getelementptr inbounds nuw [5 x i32], ptr %6, i64 0, i64 %26
  store i32 %25, ptr %27, align 4, !tbaa !16
  %indvars.iv.next = add nuw nsw i64 %indvars.iv, 1
  %28 = trunc nuw i64 %indvars.iv to i32
  %lftr.wideiv = trunc i64 %indvars.iv.next to i32
  %exitcond.not = icmp eq i32 %4, %lftr.wideiv
  br i1 %exitcond.not, label %._crit_edge, label %23, !llvm.loop !57

29:                                               ; preds = %43
  store i64 %.1, ptr %21, align 8, !tbaa !44
  %30 = getelementptr inbounds nuw i8, ptr %0, i64 40
  store i64 0, ptr %30, align 8, !tbaa !45
  %31 = zext i32 %8 to i64
  %.idx = shl nuw nsw i64 %31, 2
  %32 = getelementptr inbounds nuw i8, ptr %0, i64 %.idx
  %.ptr47 = getelementptr inbounds nuw i8, ptr %32, i64 8
  %.not40 = icmp eq i32 %8, 0
  br i1 %.not40, label %._crit_edge45, label %.lr.ph44.preheader

.lr.ph44.preheader:                               ; preds = %29
  %.ptr = getelementptr inbounds nuw i8, ptr %0, i64 8
  br label %.lr.ph44

33:                                               ; preds = %_ZN3sat3cut11effect_maskEj.exit, %43
  %indvars.iv50 = phi i64 [ 0, %_ZN3sat3cut11effect_maskEj.exit ], [ %indvars.iv.next51, %43 ]
  %.02439 = phi i64 [ 0, %_ZN3sat3cut11effect_maskEj.exit ], [ %.1, %43 ]
  %.02837 = phi i32 [ 0, %_ZN3sat3cut11effect_maskEj.exit ], [ %.129, %43 ]
  %34 = shl nuw i64 1, %indvars.iv50
  %35 = and i64 %34, %.09.i
  %.not31 = icmp eq i64 %35, 0
  br i1 %.not31, label %43, label %36

36:                                               ; preds = %33
  %37 = lshr i64 %22, %indvars.iv50
  %38 = and i64 %37, 1
  %39 = zext nneg i32 %.02837 to i64
  %40 = shl nuw i64 %38, %39
  %41 = or i64 %40, %.02439
  %42 = add i32 %.02837, 1
  br label %43

43:                                               ; preds = %33, %36
  %.129 = phi i32 [ %42, %36 ], [ %.02837, %33 ]
  %.1 = phi i64 [ %41, %36 ], [ %.02439, %33 ]
  %indvars.iv.next51 = add nuw nsw i64 %indvars.iv50, 1
  %exitcond53.not = icmp eq i64 %indvars.iv.next51, 64
  br i1 %exitcond53.not, label %29, label %33, !llvm.loop !58

._crit_edge45:                                    ; preds = %.lr.ph44, %29
  %.027.lcssa = phi i32 [ 0, %29 ], [ %47, %.lr.ph44 ]
  store i32 %.027.lcssa, ptr %0, align 8, !tbaa !12
  ret void

.lr.ph44:                                         ; preds = %.lr.ph44.preheader, %.lr.ph44
  %.02542 = phi ptr [ %48, %.lr.ph44 ], [ %.ptr, %.lr.ph44.preheader ]
  %.02741 = phi i32 [ %47, %.lr.ph44 ], [ 0, %.lr.ph44.preheader ]
  %44 = load i32, ptr %.02542, align 4, !tbaa !16
  %45 = and i32 %44, 31
  %46 = shl nuw i32 1, %45
  %47 = or i32 %46, %.02741
  %48 = getelementptr inbounds nuw i8, ptr %.02542, i64 4
  %.not = icmp eq ptr %48, %.ptr47
  br i1 %.not, label %._crit_edge45, label %.lr.ph44
}